; Function Attrs: mustprogress nofree norecurse nosync nounwind memory(argmem: readwrite) uwtable
define void @_ZN2cv9AnimationC2EiNS_7Scalar_IdEE(ptr noundef nonnull writeonly align 8 captures(none) dereferenceable(88) initializes((0, 4)) %0, i32 noundef %1, ptr noundef readonly captures(none) %2) unnamed_addr #21 align 2 {
  store i32 %1, ptr %0, align 8, !tbaa !127
  %4 = getelementptr inbounds nuw i8, ptr %0, i64 8
  br label %5

5:                                                ; preds = %5, %3
  %indvars.iv.i.i.i = phi i64 [ 0, %3 ], [ %indvars.iv.next.i.i.i, %5 ]
  %6 = getelementptr inbounds nuw double, ptr %2, i64 %indvars.iv.i.i.i
  %7 = load double, ptr %6, align 8, !tbaa !126
  %8 = getelementptr inbounds nuw [4 x double], ptr %4, i64 0, i64 %indvars.iv.i.i.i
  store double %7, ptr %8, align 8, !tbaa !126
  %indvars.iv.next.i.i.i = add nuw nsw i64 %indvars.iv.i.i.i, 1
  %exitcond.not.i.i.i = icmp eq i64 %indvars.iv.next.i.i.i, 4
  br i1 %exitcond.not.i.i.i, label %_ZN2cv7Scalar_IdEC2ERKS1_.exit, label %5, !llvm.loop !282

_ZN2cv7Scalar_IdEC2ERKS1_.exit:                   ; preds = %5
  %9 = getelementptr inbounds nuw i8, ptr %0, i64 40
  %or.cond = icmp ugt i32 %1, 65535
  tail call void @llvm.memset.p0.i64(ptr noundef nonnull align 8 dereferenceable(48) %9, i8 0, i64 48, i1 false)
  br i1 %or.cond, label %10, label %11

10:                                               ; preds = %_ZN2cv7Scalar_IdEC2ERKS1_.exit
  store i32 0, ptr %0, align 8, !tbaa !127
  br label %11

11:                                               ; preds = %_ZN2cv7Scalar_IdEC2ERKS1_.exit, %10
  ret void
}